target datalayout = "e-m:e-p270:32:32-p271:32:32-p272:64:64-i64:64-i128:128-f80:128-n8:16:32:64-S128"
target triple = "x86_64-pc-linux-gnu"

@__itt_sync_prepare_ptr__3_0 = external global ptr, align 8
@__itt_sync_cancel_ptr__3_0 = external global ptr, align 8
@__itt_sync_acquired_ptr__3_0 = external global ptr, align 8
@__itt_sync_releasing_ptr__3_0 = external global ptr, align 8
@__itt_sync_destroy_ptr__3_0 = external global ptr, align 8

; Function Attrs: mustprogress sspstrong uwtable
define void @_ZN3tbb6detail2r115call_itt_notifyEiPv(i32 noundef %0, ptr noundef %1) #0 {
  %3 = alloca i32, align 4
  %4 = alloca ptr, align 8
  store i32 %0, ptr %3, align 4, !tbaa !17
  store ptr %1, ptr %4, align 8, !tbaa !14
  %5 = load i32, ptr %3, align 4, !tbaa !17
  switch i32 %5, label %46 [
    i32 0, label %6
    i32 1, label %14
    i32 2, label %22
    i32 3, label %30
    i32 4, label %38
  ]

6:                                                ; preds = %2
  %7 = load ptr, ptr @__itt_sync_prepare_ptr__3_0, align 8, !tbaa !14
  %8 = icmp ne ptr %7, null
  br i1 %8, label %10, label %9

9:                                                ; preds = %6
  br label %13

10:                                               ; preds = %6
  %11 = load ptr, ptr @__itt_sync_prepare_ptr__3_0, align 8, !tbaa !14
  %12 = load ptr, ptr %4, align 8, !tbaa !14
  call void %11(ptr noundef %12)
  br label %13

13:                                               ; preds = %10, %9
  br label %46

14:                                               ; preds = %2
  %15 = load ptr, ptr @__itt_sync_cancel_ptr__3_0, align 8, !tbaa !14
  %16 = icmp ne ptr %15, null
  br i1 %16, label %18, label %17

17:                                               ; preds = %14
  br label %21

18:                                               ; preds = %14
  %19 = load ptr, ptr @__itt_sync_cancel_ptr__3_0, align 8, !tbaa !14
  %20 = load ptr, ptr %4, align 8, !tbaa !14
  call void %19(ptr noundef %20)
  br label %21

21:                                               ; preds = %18, %17
  br label %46

22:                                               ; preds = %2
  %23 = load ptr, ptr @__itt_sync_acquired_ptr__3_0, align 8, !tbaa !14
  %24 = icmp ne ptr %23, null
  br i1 %24, label %26, label %25

25:                                               ; preds = %22
  br label %29

26:                                               ; preds = %22
  %27 = load ptr, ptr @__itt_sync_acquired_ptr__3_0, align 8, !tbaa !14
  %28 = load ptr, ptr %4, align 8, !tbaa !14
  call void %27(ptr noundef %28)
  br label %29

29:                                               ; preds = %26, %25
  br label %46

30:                                               ; preds = %2
  %31 = load ptr, ptr @__itt_sync_releasing_ptr__3_0, align 8, !tbaa !14
  %32 = icmp ne ptr %31, null
  br i1 %32, label %34, label %33

33:                                               ; preds = %30
  br label %37

34:                                               ; preds = %30
  %35 = load ptr, ptr @__itt_sync_releasing_ptr__3_0, align 8, !tbaa !14
  %36 = load ptr, ptr %4, align 8, !tbaa !14
  call void %35(ptr noundef %36)
  br label %37

37:                                               ; preds = %34, %33
  br label %46

38:                                               ; preds = %2
  %39 = load ptr, ptr @__itt_sync_destroy_ptr__3_0, align 8, !tbaa !14
  %40 = icmp ne ptr %39, null
  br i1 %40, label %42, label %41

41:                                               ; preds = %38
  br label %45

42:                                               ; preds = %38
  %43 = load ptr, ptr @__itt_sync_destroy_ptr__3_0, align 8, !tbaa !14
  %44 = load ptr, ptr %4, align 8, !tbaa !14
  call void %43(ptr noundef %44)
  br label %45

45:                                               ; preds = %42, %41
  br label %46

46:                                               ; preds = %2, %45, %37, %29, %21, %13
  ret void
}