; Function Attrs: mustprogress sspstrong uwtable
define void @_ZN3tbb6detail2r115call_itt_notifyEiPv(i32 noundef %0, ptr noundef %1) local_unnamed_addr #0 {
  switch i32 %0, label %13 [
    i32 0, label %3
    i32 1, label %5
    i32 2, label %7
    i32 3, label %9
    i32 4, label %11
  ]

3:                                                ; preds = %2
  %4 = load ptr, ptr @__itt_sync_prepare_ptr__3_0, align 8, !tbaa !7
  %.not12 = icmp eq ptr %4, null
  br i1 %.not12, label %13, label %.sink.split

5:                                                ; preds = %2
  %6 = load ptr, ptr @__itt_sync_cancel_ptr__3_0, align 8, !tbaa !7
  %.not11 = icmp eq ptr %6, null
  br i1 %.not11, label %13, label %.sink.split

7:                                                ; preds = %2
  %8 = load ptr, ptr @__itt_sync_acquired_ptr__3_0, align 8, !tbaa !7
  %.not10 = icmp eq ptr %8, null
  br i1 %.not10, label %13, label %.sink.split

9:                                                ; preds = %2
  %10 = load ptr, ptr @__itt_sync_releasing_ptr__3_0, align 8, !tbaa !7
  %.not9 = icmp eq ptr %10, null
  br i1 %.not9, label %13, label %.sink.split

11:                                               ; preds = %2
  %12 = load ptr, ptr @__itt_sync_destroy_ptr__3_0, align 8, !tbaa !7
  %.not = icmp eq ptr %12, null
  br i1 %.not, label %13, label %.sink.split

.sink.split:                                      ; preds = %11, %9, %7, %5, %3
  %.sink = phi ptr [ %4, %3 ], [ %6, %5 ], [ %8, %7 ], [ %10, %9 ], [ %12, %11 ]
  tail call void %.sink(ptr noundef %1)
  br label %13

13:                                               ; preds = %.sink.split, %11, %9, %7, %5, %3, %2
  ret void
}